target datalayout = "e-m:e-p270:32:32-p271:32:32-p272:64:64-i64:64-i128:128-f80:128-n8:16:32:64-S128"
target triple = "x86_64-pc-linux-gnu"

@hf_gsm_a_spare_bits = external global i32, align 4
@hf_gsm_a_dtap_sysid = internal global i32 0, align 4
@hf_gsm_a_dtap_bitmap_length = internal global i32 0, align 4
@ett_gsm_dtap_elem = hidden global [97 x i32] zeroinitializer, align 16
@.str.182 = private unnamed_addr constant [26 x i8] c"Codec Bitmap for SysID %u\00", align 1

; Function Attrs: null_pointer_is_valid sspstrong uwtable
define hidden zeroext i16 @de_sup_codec_list(ptr noundef %0, ptr noundef %1, ptr noundef %2, i32 noundef %3, i32 noundef %4, ptr noundef %5, i32 noundef %6) #1 {
  %8 = alloca ptr, align 8
  %9 = alloca ptr, align 8
  %10 = alloca ptr, align 8
  %11 = alloca i32, align 4
  %12 = alloca i32, align 4
  %13 = alloca ptr, align 8
  %14 = alloca i32, align 4
  %15 = alloca i32, align 4
  %16 = alloca i8, align 1
  %17 = alloca ptr, align 8
  %18 = alloca i8, align 1
  store ptr %0, ptr %8, align 8
  store ptr %1, ptr %9, align 8
  store ptr %2, ptr %10, align 8
  store i32 %3, ptr %11, align 4
  store i32 %4, ptr %12, align 4
  store ptr %5, ptr %13, align 8
  store i32 %6, ptr %14, align 4
  call void @llvm.lifetime.start.p0(i64 4, ptr %15) #7
  call void @llvm.lifetime.start.p0(i64 1, ptr %16) #7
  call void @llvm.lifetime.start.p0(i64 8, ptr %17) #7
  call void @llvm.lifetime.start.p0(i64 1, ptr %18) #7
  %19 = load i32, ptr %11, align 4
  store i32 %19, ptr %15, align 4
  store i8 0, ptr %18, align 1
  br label %20

20:                                               ; preds = %84, %7
  %21 = load i32, ptr %12, align 4
  %22 = load i32, ptr %15, align 4
  %23 = load i32, ptr %11, align 4
  %24 = sub i32 %22, %23
  %25 = icmp ugt i32 %21, %24
  br i1 %25, label %26, label %89

26:                                               ; preds = %20
  %27 = load i8, ptr %18, align 1
  %28 = add i8 %27, 1
  store i8 %28, ptr %18, align 1
  %29 = load ptr, ptr %9, align 8
  %30 = load i32, ptr @hf_gsm_a_dtap_sysid, align 4
  %31 = load ptr, ptr %8, align 8
  %32 = load i32, ptr %15, align 4
  %33 = call ptr @proto_tree_add_item(ptr noundef %29, i32 noundef %30, ptr noundef %31, i32 noundef %32, i32 noundef 1, i32 noundef 0)
  %34 = load i32, ptr %15, align 4
  %35 = add i32 %34, 1
  store i32 %35, ptr %15, align 4
  %36 = load ptr, ptr %9, align 8
  %37 = load i32, ptr @hf_gsm_a_dtap_bitmap_length, align 4
  %38 = load ptr, ptr %8, align 8
  %39 = load i32, ptr %15, align 4
  %40 = call ptr @proto_tree_add_item(ptr noundef %36, i32 noundef %37, ptr noundef %38, i32 noundef %39, i32 noundef 1, i32 noundef 0)
  %41 = load ptr, ptr %8, align 8
  %42 = load i32, ptr %15, align 4
  %43 = call zeroext i8 @tvb_get_uint8(ptr noundef %41, i32 noundef %42)
  store i8 %43, ptr %16, align 1
  %44 = load i32, ptr %15, align 4
  %45 = add i32 %44, 1
  store i32 %45, ptr %15, align 4
  %46 = load i8, ptr %16, align 1
  %47 = zext i8 %46 to i32
  %48 = icmp sgt i32 %47, 0
  br i1 %48, label %49, label %84

49:                                               ; preds = %26
  %50 = load ptr, ptr %9, align 8
  %51 = load ptr, ptr %8, align 8
  %52 = load i32, ptr %15, align 4
  %53 = load i8, ptr %16, align 1
  %54 = zext i8 %53 to i32
  %55 = load i32, ptr getelementptr ([97 x i32], ptr @ett_gsm_dtap_elem, i64 0, i64 54), align 8
  %56 = load i8, ptr %18, align 1
  %57 = zext i8 %56 to i32
  %58 = call ptr (ptr, ptr, i32, i32, i32, ptr, ptr, ...) @proto_tree_add_subtree_format(ptr noundef %50, ptr noundef %51, i32 noundef %52, i32 noundef %54, i32 noundef %55, ptr noundef null, ptr noundef @.str.182, i32 noundef %57)
  store ptr %58, ptr %17, align 8
  %59 = load ptr, ptr %17, align 8
  %60 = load ptr, ptr %8, align 8
  %61 = load i32, ptr %15, align 4
  call void @proto_tree_add_bitmask_list(ptr noundef %59, ptr noundef %60, i32 noundef %61, i32 noundef 1, ptr noundef @de_sup_codec_list.oct1_flags, i32 noundef 0)
  %62 = load i32, ptr %15, align 4
  %63 = add i32 %62, 1
  store i32 %63, ptr %15, align 4
  %64 = load i8, ptr %16, align 1
  %65 = add i8 %64, -1
  store i8 %65, ptr %16, align 1
  %66 = load i8, ptr %16, align 1
  %67 = zext i8 %66 to i32
  %68 = icmp sgt i32 %67, 0
  br i1 %68, label %69, label %83

69:                                               ; preds = %49
  %70 = load ptr, ptr %17, align 8
  %71 = load i32, ptr @hf_gsm_a_spare_bits, align 4
  %72 = load ptr, ptr %8, align 8
  %73 = load i32, ptr %15, align 4
  %74 = shl i32 %73, 3
  %75 = call ptr @proto_tree_add_bits_item(ptr noundef %70, i32 noundef %71, ptr noundef %72, i32 noundef %74, i32 noundef 1, i32 noundef 0)
  %76 = load ptr, ptr %17, align 8
  %77 = load ptr, ptr %8, align 8
  %78 = load i32, ptr %15, align 4
  call void @proto_tree_add_bitmask_list(ptr noundef %76, ptr noundef %77, i32 noundef %78, i32 noundef 1, ptr noundef @de_sup_codec_list.oct2_flags, i32 noundef 0)
  %79 = load i32, ptr %15, align 4
  %80 = add i32 %79, 1
  store i32 %80, ptr %15, align 4
  %81 = load i8, ptr %16, align 1
  %82 = add i8 %81, -1
  store i8 %82, ptr %16, align 1
  br label %83

83:                                               ; preds = %69, %49
  br label %84

84:                                               ; preds = %83, %26
  %85 = load i32, ptr %15, align 4
  %86 = load i8, ptr %16, align 1
  %87 = zext i8 %86 to i32
  %88 = add i32 %85, %87
  store i32 %88, ptr %15, align 4
  br label %20, !llvm.loop !10

89:                                               ; preds = %20
  %90 = load i32, ptr %15, align 4
  %91 = load i32, ptr %11, align 4
  %92 = sub i32 %90, %91
  %93 = trunc i32 %92 to i16
  call void @llvm.lifetime.end.p0(i64 1, ptr %18) #7
  call void @llvm.lifetime.end.p0(i64 8, ptr %17) #7
  call void @llvm.lifetime.end.p0(i64 1, ptr %16) #7
  call void @llvm.lifetime.end.p0(i64 4, ptr %15) #7
  ret i16 %93
}