; Function Attrs: null_pointer_is_valid sspstrong uwtable
define hidden zeroext i16 @de_sup_codec_list(ptr noundef %0, ptr noundef %1, ptr readnone captures(none) %2, i32 noundef %3, i32 noundef %4, ptr readnone captures(none) %5, i32 %6) #1 {
  %.not45 = icmp eq i32 %4, 0
  br i1 %.not45, label %._crit_edge, label %.lr.ph

.lr.ph:                                           ; preds = %7, %29
  %.044 = phi i8 [ %8, %29 ], [ 0, %7 ]
  %.03843 = phi i32 [ %30, %29 ], [ %3, %7 ]
  %8 = add i8 %.044, 1
  %9 = load i32, ptr @hf_gsm_a_dtap_sysid, align 4
  %10 = tail call ptr @proto_tree_add_item(ptr noundef %1, i32 noundef %9, ptr noundef %0, i32 noundef %.03843, i32 noundef 1, i32 noundef 0)
  %11 = add i32 %.03843, 1
  %12 = load i32, ptr @hf_gsm_a_dtap_bitmap_length, align 4
  %13 = tail call ptr @proto_tree_add_item(ptr noundef %1, i32 noundef %12, ptr noundef %0, i32 noundef %11, i32 noundef 1, i32 noundef 0)
  %14 = tail call zeroext i8 @tvb_get_uint8(ptr noundef %0, i32 noundef %11)
  %15 = add i32 %.03843, 2
  %.not = icmp eq i8 %14, 0
  br i1 %.not, label %29, label %16

16:                                               ; preds = %.lr.ph
  %17 = zext i8 %14 to i32
  %18 = load i32, ptr getelementptr inbounds nuw (i8, ptr @ett_gsm_dtap_elem, i64 216), align 8
  %19 = zext i8 %8 to i32
  %20 = tail call ptr (ptr, ptr, i32, i32, i32, ptr, ptr, ...) @proto_tree_add_subtree_format(ptr noundef %1, ptr noundef %0, i32 noundef %15, i32 noundef %17, i32 noundef %18, ptr noundef null, ptr noundef nonnull @.str.182, i32 noundef %19)
  tail call void @proto_tree_add_bitmask_list(ptr noundef %20, ptr noundef %0, i32 noundef %15, i32 noundef 1, ptr noundef nonnull @de_sup_codec_list.oct1_flags, i32 noundef 0)
  %21 = add i32 %.03843, 3
  %.not42 = icmp eq i8 %14, 1
  br i1 %.not42, label %29, label %22

22:                                               ; preds = %16
  %23 = load i32, ptr @hf_gsm_a_spare_bits, align 4
  %24 = shl i32 %21, 3
  %25 = tail call ptr @proto_tree_add_bits_item(ptr noundef %20, i32 noundef %23, ptr noundef %0, i32 noundef %24, i32 noundef 1, i32 noundef 0)
  tail call void @proto_tree_add_bitmask_list(ptr noundef %20, ptr noundef %0, i32 noundef %21, i32 noundef 1, ptr noundef nonnull @de_sup_codec_list.oct2_flags, i32 noundef 0)
  %26 = add i32 %.03843, 4
  %27 = add i8 %14, -2
  %28 = zext i8 %27 to i32
  br label %29

29:                                               ; preds = %16, %22, %.lr.ph
  %.039 = phi i32 [ %28, %22 ], [ 0, %16 ], [ 0, %.lr.ph ]
  %.1 = phi i32 [ %26, %22 ], [ %21, %16 ], [ %15, %.lr.ph ]
  %30 = add i32 %.1, %.039
  %31 = sub i32 %30, %3
  %32 = icmp ugt i32 %4, %31
  br i1 %32, label %.lr.ph, label %._crit_edge.loopexit, !llvm.loop !8

._crit_edge.loopexit:                             ; preds = %29
  %33 = trunc i32 %31 to i16
  br label %._crit_edge

._crit_edge:                                      ; preds = %._crit_edge.loopexit, %7
  %.lcssa = phi i16 [ 0, %7 ], [ %33, %._crit_edge.loopexit ]
  ret i16 %.lcssa
}